target datalayout = "e-m:e-p270:32:32-p271:32:32-p272:64:64-i64:64-i128:128-f80:128-n8:16:32:64-S128"
target triple = "x86_64-pc-linux-gnu"

@.str.64 = private unnamed_addr constant [17 x i8] c"PHP_INI_SCAN_DIR\00", align 1
@.str.65 = private unnamed_addr constant [15 x i8] c"%s/.phpdbginit\00", align 1
@.str.66 = private unnamed_addr constant [15 x i8] c"/usr/local/lib\00", align 1
@.str.67 = private unnamed_addr constant [1 x i8] zeroinitializer, align 1
@.str.68 = private unnamed_addr constant [6 x i8] c"%s/%s\00", align 1
@.str.69 = private unnamed_addr constant [12 x i8] c".phpdbginit\00", align 1

; Function Attrs: nounwind uwtable
define hidden void @phpdbg_init(ptr noundef %0, i64 noundef %1, i1 noundef zeroext %2) #0 {
  %4 = alloca ptr, align 8
  %5 = alloca i64, align 8
  %6 = alloca i8, align 1
  %7 = alloca ptr, align 8
  %8 = alloca ptr, align 8
  %9 = alloca i32, align 4
  %10 = alloca i64, align 8
  %11 = alloca i32, align 4
  store ptr %0, ptr %4, align 8
  store i64 %1, ptr %5, align 8
  %12 = zext i1 %2 to i8
  store i8 %12, ptr %6, align 1
  %13 = load ptr, ptr %4, align 8
  %14 = icmp ne ptr %13, null
  br i1 %14, label %15, label %18

15:                                               ; preds = %3
  %16 = load ptr, ptr %4, align 8
  %17 = load i64, ptr %5, align 8
  call void @phpdbg_try_file_init(ptr noundef %16, i64 noundef %17, i1 noundef zeroext true)
  br label %82

18:                                               ; preds = %3
  %19 = load i8, ptr %6, align 1
  %20 = trunc i8 %19 to i1
  br i1 %20, label %21, label %81

21:                                               ; preds = %18
  %22 = call ptr @getenv(ptr noundef @.str.64) #15
  store ptr %22, ptr %7, align 8
  %23 = call i32 (ptr, ptr, ...) @asprintf(ptr noundef %8, ptr noundef @.str.65, ptr noundef @.str.66) #15
  %24 = sext i32 %23 to i64
  store i64 %24, ptr %10, align 8
  %25 = load ptr, ptr %8, align 8
  %26 = load i64, ptr %10, align 8
  call void @phpdbg_try_file_init(ptr noundef %25, i64 noundef %26, i1 noundef zeroext false)
  %27 = load ptr, ptr %8, align 8
  call void @free(ptr noundef %27) #15
  %28 = load ptr, ptr %7, align 8
  %29 = icmp ne ptr %28, null
  br i1 %29, label %31, label %30

30:                                               ; preds = %21
  store ptr @.str.67, ptr %7, align 8
  br label %31

31:                                               ; preds = %30, %21
  br label %32

32:                                               ; preds = %74, %31
  %33 = load ptr, ptr %7, align 8
  %34 = load i8, ptr %33, align 1
  %35 = sext i8 %34 to i32
  %36 = icmp ne i32 %35, 0
  br i1 %36, label %37, label %80

37:                                               ; preds = %32
  store i32 0, ptr %9, align 4
  br label %38

38:                                               ; preds = %56, %37
  %39 = load ptr, ptr %7, align 8
  %40 = load i32, ptr %9, align 4
  %41 = sext i32 %40 to i64
  %42 = getelementptr inbounds i8, ptr %39, i64 %41
  %43 = load i8, ptr %42, align 1
  %44 = sext i8 %43 to i32
  %45 = icmp ne i32 %44, 58
  br i1 %45, label %46, label %57

46:                                               ; preds = %38
  %47 = load ptr, ptr %7, align 8
  %48 = load i32, ptr %9, align 4
  %49 = add nsw i32 %48, 1
  store i32 %49, ptr %9, align 4
  %50 = sext i32 %48 to i64
  %51 = getelementptr inbounds i8, ptr %47, i64 %50
  %52 = load i8, ptr %51, align 1
  %53 = sext i8 %52 to i32
  %54 = icmp eq i32 %53, 0
  br i1 %54, label %55, label %56

55:                                               ; preds = %46
  store i32 -1, ptr %9, align 4
  br label %57

56:                                               ; preds = %46
  br label %38

57:                                               ; preds = %55, %38
  %58 = load i32, ptr %9, align 4
  %59 = icmp ne i32 %58, -1
  br i1 %59, label %60, label %65

60:                                               ; preds = %57
  %61 = load ptr, ptr %7, align 8
  %62 = load i32, ptr %9, align 4
  %63 = sext i32 %62 to i64
  %64 = getelementptr inbounds i8, ptr %61, i64 %63
  store i8 0, ptr %64, align 1
  br label %65

65:                                               ; preds = %60, %57
  %66 = load ptr, ptr %7, align 8
  %67 = call i32 (ptr, ptr, ...) @asprintf(ptr noundef %4, ptr noundef @.str.68, ptr noundef %66, ptr noundef @.str.69) #15
  store i32 %67, ptr %11, align 4
  %68 = load ptr, ptr %4, align 8
  %69 = load i64, ptr %5, align 8
  call void @phpdbg_try_file_init(ptr noundef %68, i64 noundef %69, i1 noundef zeroext false)
  %70 = load ptr, ptr %4, align 8
  call void @free(ptr noundef %70) #15
  %71 = load i32, ptr %9, align 4
  %72 = icmp eq i32 %71, -1
  br i1 %72, label %73, label %74

73:                                               ; preds = %65
  br label %80

74:                                               ; preds = %65
  %75 = load i32, ptr %9, align 4
  %76 = add nsw i32 %75, 1
  %77 = load ptr, ptr %7, align 8
  %78 = sext i32 %76 to i64
  %79 = getelementptr inbounds i8, ptr %77, i64 %78
  store ptr %79, ptr %7, align 8
  br label %32

80:                                               ; preds = %73, %32
  call void @phpdbg_try_file_init(ptr noundef @.str.69, i64 noundef 11, i1 noundef zeroext false)
  br label %81

81:                                               ; preds = %80, %18
  br label %82

82:                                               ; preds = %81, %15
  ret void
}