; Function Attrs: nounwind uwtable
define hidden void @phpdbg_init(ptr noundef %0, i64 noundef %1, i1 noundef zeroext %2) local_unnamed_addr #0 {
  %4 = alloca ptr, align 8
  %5 = alloca ptr, align 8
  store ptr %0, ptr %4, align 8
  %.not = icmp eq ptr %0, null
  br i1 %.not, label %7, label %6

6:                                                ; preds = %3
  tail call void @phpdbg_try_file_init(ptr noundef nonnull %0, i64 poison, i1 noundef zeroext true)
  br label %30

7:                                                ; preds = %3
  br i1 %2, label %8, label %30

8:                                                ; preds = %7
  %9 = tail call ptr @getenv(ptr noundef nonnull @.str.64) #24
  %10 = call i32 (ptr, ptr, ...) @asprintf(ptr noundef nonnull %5, ptr noundef nonnull @.str.65, ptr noundef nonnull @.str.66) #24
  %11 = load ptr, ptr %5, align 8
  call void @phpdbg_try_file_init(ptr noundef %11, i64 poison, i1 noundef zeroext false)
  %12 = load ptr, ptr %5, align 8
  call void @free(ptr noundef %12) #24
  %.not19 = icmp eq ptr %9, null
  %spec.store.select = select i1 %.not19, ptr @.str.67, ptr %9
  %13 = load i8, ptr %spec.store.select, align 1
  %.not2030 = icmp eq i8 %13, 0
  br i1 %.not2030, label %.thread._crit_edge, label %.preheader

.preheader:                                       ; preds = %8, %25
  %.031 = phi ptr [ %28, %25 ], [ %spec.store.select, %8 ]
  br label %14

14:                                               ; preds = %.preheader, %17
  %indvars.iv = phi i64 [ 0, %.preheader ], [ %indvars.iv.next, %17 ]
  %15 = getelementptr inbounds i8, ptr %.031, i64 %indvars.iv
  %16 = load i8, ptr %15, align 1
  %.not21.not = icmp eq i8 %16, 58
  br i1 %.not21.not, label %19, label %17

17:                                               ; preds = %14
  %indvars.iv.next = add nuw nsw i64 %indvars.iv, 1
  %18 = icmp eq i8 %16, 0
  br i1 %18, label %.thread, label %14

19:                                               ; preds = %14
  %20 = and i64 %indvars.iv, 4294967295
  %21 = getelementptr inbounds i8, ptr %.031, i64 %20
  store i8 0, ptr %21, align 1
  br label %.thread

.thread:                                          ; preds = %17, %19
  %.125 = phi i64 [ %indvars.iv, %19 ], [ -1, %17 ]
  %22 = call i32 (ptr, ptr, ...) @asprintf(ptr noundef nonnull %4, ptr noundef nonnull @.str.68, ptr noundef nonnull %.031, ptr noundef nonnull @.str.69) #24
  %23 = load ptr, ptr %4, align 8
  call void @phpdbg_try_file_init(ptr noundef %23, i64 poison, i1 noundef zeroext false)
  %24 = load ptr, ptr %4, align 8
  call void @free(ptr noundef %24) #24
  br i1 %.not21.not, label %25, label %.thread._crit_edge

25:                                               ; preds = %.thread
  %26 = shl i64 %.125, 32
  %sext = add i64 %26, 4294967296
  %27 = ashr exact i64 %sext, 32
  %28 = getelementptr inbounds i8, ptr %.031, i64 %27
  %29 = load i8, ptr %28, align 1
  %.not20 = icmp eq i8 %29, 0
  br i1 %.not20, label %.thread._crit_edge, label %.preheader

.thread._crit_edge:                               ; preds = %25, %.thread, %8
  call void @phpdbg_try_file_init(ptr noundef nonnull @.str.69, i64 poison, i1 noundef zeroext false)
  br label %30

30:                                               ; preds = %7, %.thread._crit_edge, %6
  ret void
}